target datalayout = "e-m:e-p270:32:32-p271:32:32-p272:64:64-i64:64-i128:128-f80:128-n8:16:32:64-S128"
target triple = "x86_64-pc-linux-gnu"

@kGammaToLinearTab = internal global [256 x i16] zeroinitializer, align 16
@kLinearToGammaTab = internal global [33 x i32] zeroinitializer, align 16

; Function Attrs: inlinehint nounwind uwtable
define internal i32 @Interpolate(i32 noundef %0) #3 {
  %2 = alloca i32, align 4
  %3 = alloca i32, align 4
  %4 = alloca i32, align 4
  %5 = alloca i32, align 4
  %6 = alloca i32, align 4
  %7 = alloca i32, align 4
  store i32 %0, ptr %2, align 4, !tbaa !21
  call void @llvm.lifetime.start.p0(i64 4, ptr %3) #7
  %8 = load i32, ptr %2, align 4, !tbaa !21
  %9 = ashr i32 %8, 9
  store i32 %9, ptr %3, align 4, !tbaa !21
  call void @llvm.lifetime.start.p0(i64 4, ptr %4) #7
  %10 = load i32, ptr %2, align 4, !tbaa !21
  %11 = and i32 %10, 511
  store i32 %11, ptr %4, align 4, !tbaa !21
  call void @llvm.lifetime.start.p0(i64 4, ptr %5) #7
  %12 = load i32, ptr %3, align 4, !tbaa !21
  %13 = sext i32 %12 to i64
  %14 = getelementptr inbounds [33 x i32], ptr @kLinearToGammaTab, i64 0, i64 %13
  %15 = load i32, ptr %14, align 4, !tbaa !21
  store i32 %15, ptr %5, align 4, !tbaa !21
  call void @llvm.lifetime.start.p0(i64 4, ptr %6) #7
  %16 = load i32, ptr %3, align 4, !tbaa !21
  %17 = add nsw i32 %16, 1
  %18 = sext i32 %17 to i64
  %19 = getelementptr inbounds [33 x i32], ptr @kLinearToGammaTab, i64 0, i64 %18
  %20 = load i32, ptr %19, align 4, !tbaa !21
  store i32 %20, ptr %6, align 4, !tbaa !21
  call void @llvm.lifetime.start.p0(i64 4, ptr %7) #7
  %21 = load i32, ptr %6, align 4, !tbaa !21
  %22 = load i32, ptr %4, align 4, !tbaa !21
  %23 = mul nsw i32 %21, %22
  %24 = load i32, ptr %5, align 4, !tbaa !21
  %25 = load i32, ptr %4, align 4, !tbaa !21
  %26 = sub nsw i32 512, %25
  %27 = mul nsw i32 %24, %26
  %28 = add nsw i32 %23, %27
  store i32 %28, ptr %7, align 4, !tbaa !21
  %29 = load i32, ptr %7, align 4, !tbaa !21
  call void @llvm.lifetime.end.p0(i64 4, ptr %7) #7
  call void @llvm.lifetime.end.p0(i64 4, ptr %6) #7
  call void @llvm.lifetime.end.p0(i64 4, ptr %5) #7
  call void @llvm.lifetime.end.p0(i64 4, ptr %4) #7
  call void @llvm.lifetime.end.p0(i64 4, ptr %3) #7
  ret i32 %29
}

; Function Attrs: inlinehint nounwind uwtable
define internal i32 @LinearToGamma(i32 noundef %0, i32 noundef %1) #3 {
  %3 = alloca i32, align 4
  %4 = alloca i32, align 4
  %5 = alloca i32, align 4
  store i32 %0, ptr %3, align 4, !tbaa !21
  store i32 %1, ptr %4, align 4, !tbaa !21
  call void @llvm.lifetime.start.p0(i64 4, ptr %5) #7
  %6 = load i32, ptr %3, align 4, !tbaa !21
  %7 = load i32, ptr %4, align 4, !tbaa !21
  %8 = shl i32 %6, %7
  %9 = call i32 @Interpolate(i32 noundef %8)
  store i32 %9, ptr %5, align 4, !tbaa !21
  %10 = load i32, ptr %5, align 4, !tbaa !21
  %11 = add nsw i32 %10, 64
  %12 = ashr i32 %11, 7
  call void @llvm.lifetime.end.p0(i64 4, ptr %5) #7
  ret i32 %12
}

; Function Attrs: inlinehint nounwind uwtable
define internal i32 @GammaToLinear(i8 noundef zeroext %0) #3 {
  %2 = alloca i8, align 1
  store i8 %0, ptr %2, align 1, !tbaa !36
  %3 = load i8, ptr %2, align 1, !tbaa !36
  %4 = zext i8 %3 to i64
  %5 = getelementptr inbounds nuw [256 x i16], ptr @kGammaToLinearTab, i64 0, i64 %4
  %6 = load i16, ptr %5, align 2, !tbaa !46
  %7 = zext i16 %6 to i32
  ret i32 %7
}

; Function Attrs: inlinehint nounwind uwtable
define internal void @AccumulateRGB(ptr noundef %0, ptr noundef %1, ptr noundef %2, i32 noundef %3, i32 noundef %4, ptr noundef %5, i32 noundef %6) #3 {
  %8 = alloca ptr, align 8
  %9 = alloca ptr, align 8
  %10 = alloca ptr, align 8
  %11 = alloca i32, align 4
  %12 = alloca i32, align 4
  %13 = alloca ptr, align 8
  %14 = alloca i32, align 4
  %15 = alloca i32, align 4
  %16 = alloca i32, align 4
  store ptr %0, ptr %8, align 8, !tbaa !20
  store ptr %1, ptr %9, align 8, !tbaa !20
  store ptr %2, ptr %10, align 8, !tbaa !20
  store i32 %3, ptr %11, align 4, !tbaa !21
  store i32 %4, ptr %12, align 4, !tbaa !21
  store ptr %5, ptr %13, align 8, !tbaa !42
  store i32 %6, ptr %14, align 4, !tbaa !21
  call void @llvm.lifetime.start.p0(i64 4, ptr %15) #7
  call void @llvm.lifetime.start.p0(i64 4, ptr %16) #7
  store i32 0, ptr %15, align 4, !tbaa !21
  store i32 0, ptr %16, align 4, !tbaa !21
  br label %17

17:                                               ; preds = %152, %7
  %18 = load i32, ptr %15, align 4, !tbaa !21
  %19 = load i32, ptr %14, align 4, !tbaa !21
  %20 = ashr i32 %19, 1
  %21 = icmp slt i32 %18, %20
  br i1 %21, label %22, label %161

22:                                               ; preds = %17
  %23 = load ptr, ptr %8, align 8, !tbaa !20
  %24 = load i32, ptr %16, align 4, !tbaa !21
  %25 = sext i32 %24 to i64
  %26 = getelementptr inbounds i8, ptr %23, i64 %25
  %27 = getelementptr inbounds i8, ptr %26, i64 0
  %28 = load i8, ptr %27, align 1, !tbaa !36
  %29 = call i32 @GammaToLinear(i8 noundef zeroext %28)
  %30 = load ptr, ptr %8, align 8, !tbaa !20
  %31 = load i32, ptr %16, align 4, !tbaa !21
  %32 = sext i32 %31 to i64
  %33 = getelementptr inbounds i8, ptr %30, i64 %32
  %34 = load i32, ptr %11, align 4, !tbaa !21
  %35 = sext i32 %34 to i64
  %36 = getelementptr inbounds i8, ptr %33, i64 %35
  %37 = load i8, ptr %36, align 1, !tbaa !36
  %38 = call i32 @GammaToLinear(i8 noundef zeroext %37)
  %39 = add i32 %29, %38
  %40 = load ptr, ptr %8, align 8, !tbaa !20
  %41 = load i32, ptr %16, align 4, !tbaa !21
  %42 = sext i32 %41 to i64
  %43 = getelementptr inbounds i8, ptr %40, i64 %42
  %44 = load i32, ptr %12, align 4, !tbaa !21
  %45 = sext i32 %44 to i64
  %46 = getelementptr inbounds i8, ptr %43, i64 %45
  %47 = load i8, ptr %46, align 1, !tbaa !36
  %48 = call i32 @GammaToLinear(i8 noundef zeroext %47)
  %49 = add i32 %39, %48
  %50 = load ptr, ptr %8, align 8, !tbaa !20
  %51 = load i32, ptr %16, align 4, !tbaa !21
  %52 = sext i32 %51 to i64
  %53 = getelementptr inbounds i8, ptr %50, i64 %52
  %54 = load i32, ptr %12, align 4, !tbaa !21
  %55 = load i32, ptr %11, align 4, !tbaa !21
  %56 = add nsw i32 %54, %55
  %57 = sext i32 %56 to i64
  %58 = getelementptr inbounds i8, ptr %53, i64 %57
  %59 = load i8, ptr %58, align 1, !tbaa !36
  %60 = call i32 @GammaToLinear(i8 noundef zeroext %59)
  %61 = add i32 %49, %60
  %62 = call i32 @LinearToGamma(i32 noundef %61, i32 noundef 0)
  %63 = trunc i32 %62 to i16
  %64 = load ptr, ptr %13, align 8, !tbaa !42
  %65 = getelementptr inbounds i16, ptr %64, i64 0
  store i16 %63, ptr %65, align 2, !tbaa !46
  %66 = load ptr, ptr %9, align 8, !tbaa !20
  %67 = load i32, ptr %16, align 4, !tbaa !21
  %68 = sext i32 %67 to i64
  %69 = getelementptr inbounds i8, ptr %66, i64 %68
  %70 = getelementptr inbounds i8, ptr %69, i64 0
  %71 = load i8, ptr %70, align 1, !tbaa !36
  %72 = call i32 @GammaToLinear(i8 noundef zeroext %71)
  %73 = load ptr, ptr %9, align 8, !tbaa !20
  %74 = load i32, ptr %16, align 4, !tbaa !21
  %75 = sext i32 %74 to i64
  %76 = getelementptr inbounds i8, ptr %73, i64 %75
  %77 = load i32, ptr %11, align 4, !tbaa !21
  %78 = sext i32 %77 to i64
  %79 = getelementptr inbounds i8, ptr %76, i64 %78
  %80 = load i8, ptr %79, align 1, !tbaa !36
  %81 = call i32 @GammaToLinear(i8 noundef zeroext %80)
  %82 = add i32 %72, %81
  %83 = load ptr, ptr %9, align 8, !tbaa !20
  %84 = load i32, ptr %16, align 4, !tbaa !21
  %85 = sext i32 %84 to i64
  %86 = getelementptr inbounds i8, ptr %83, i64 %85
  %87 = load i32, ptr %12, align 4, !tbaa !21
  %88 = sext i32 %87 to i64
  %89 = getelementptr inbounds i8, ptr %86, i64 %88
  %90 = load i8, ptr %89, align 1, !tbaa !36
  %91 = call i32 @GammaToLinear(i8 noundef zeroext %90)
  %92 = add i32 %82, %91
  %93 = load ptr, ptr %9, align 8, !tbaa !20
  %94 = load i32, ptr %16, align 4, !tbaa !21
  %95 = sext i32 %94 to i64
  %96 = getelementptr inbounds i8, ptr %93, i64 %95
  %97 = load i32, ptr %12, align 4, !tbaa !21
  %98 = load i32, ptr %11, align 4, !tbaa !21
  %99 = add nsw i32 %97, %98
  %100 = sext i32 %99 to i64
  %101 = getelementptr inbounds i8, ptr %96, i64 %100
  %102 = load i8, ptr %101, align 1, !tbaa !36
  %103 = call i32 @GammaToLinear(i8 noundef zeroext %102)
  %104 = add i32 %92, %103
  %105 = call i32 @LinearToGamma(i32 noundef %104, i32 noundef 0)
  %106 = trunc i32 %105 to i16
  %107 = load ptr, ptr %13, align 8, !tbaa !42
  %108 = getelementptr inbounds i16, ptr %107, i64 1
  store i16 %106, ptr %108, align 2, !tbaa !46
  %109 = load ptr, ptr %10, align 8, !tbaa !20
  %110 = load i32, ptr %16, align 4, !tbaa !21
  %111 = sext i32 %110 to i64
  %112 = getelementptr inbounds i8, ptr %109, i64 %111
  %113 = getelementptr inbounds i8, ptr %112, i64 0
  %114 = load i8, ptr %113, align 1, !tbaa !36
  %115 = call i32 @GammaToLinear(i8 noundef zeroext %114)
  %116 = load ptr, ptr %10, align 8, !tbaa !20
  %117 = load i32, ptr %16, align 4, !tbaa !21
  %118 = sext i32 %117 to i64
  %119 = getelementptr inbounds i8, ptr %116, i64 %118
  %120 = load i32, ptr %11, align 4, !tbaa !21
  %121 = sext i32 %120 to i64
  %122 = getelementptr inbounds i8, ptr %119, i64 %121
  %123 = load i8, ptr %122, align 1, !tbaa !36
  %124 = call i32 @GammaToLinear(i8 noundef zeroext %123)
  %125 = add i32 %115, %124
  %126 = load ptr, ptr %10, align 8, !tbaa !20
  %127 = load i32, ptr %16, align 4, !tbaa !21
  %128 = sext i32 %127 to i64
  %129 = getelementptr inbounds i8, ptr %126, i64 %128
  %130 = load i32, ptr %12, align 4, !tbaa !21
  %131 = sext i32 %130 to i64
  %132 = getelementptr inbounds i8, ptr %129, i64 %131
  %133 = load i8, ptr %132, align 1, !tbaa !36
  %134 = call i32 @GammaToLinear(i8 noundef zeroext %133)
  %135 = add i32 %125, %134
  %136 = load ptr, ptr %10, align 8, !tbaa !20
  %137 = load i32, ptr %16, align 4, !tbaa !21
  %138 = sext i32 %137 to i64
  %139 = getelementptr inbounds i8, ptr %136, i64 %138
  %140 = load i32, ptr %12, align 4, !tbaa !21
  %141 = load i32, ptr %11, align 4, !tbaa !21
  %142 = add nsw i32 %140, %141
  %143 = sext i32 %142 to i64
  %144 = getelementptr inbounds i8, ptr %139, i64 %143
  %145 = load i8, ptr %144, align 1, !tbaa !36
  %146 = call i32 @GammaToLinear(i8 noundef zeroext %145)
  %147 = add i32 %135, %146
  %148 = call i32 @LinearToGamma(i32 noundef %147, i32 noundef 0)
  %149 = trunc i32 %148 to i16
  %150 = load ptr, ptr %13, align 8, !tbaa !42
  %151 = getelementptr inbounds i16, ptr %150, i64 2
  store i16 %149, ptr %151, align 2, !tbaa !46
  br label %152

152:                                              ; preds = %22
  %153 = load i32, ptr %15, align 4, !tbaa !21
  %154 = add nsw i32 %153, 1
  store i32 %154, ptr %15, align 4, !tbaa !21
  %155 = load i32, ptr %11, align 4, !tbaa !21
  %156 = mul nsw i32 2, %155
  %157 = load i32, ptr %16, align 4, !tbaa !21
  %158 = add nsw i32 %157, %156
  store i32 %158, ptr %16, align 4, !tbaa !21
  %159 = load ptr, ptr %13, align 8, !tbaa !42
  %160 = getelementptr inbounds i16, ptr %159, i64 4
  store ptr %160, ptr %13, align 8, !tbaa !42
  br label %17, !llvm.loop !48

161:                                              ; preds = %17
  %162 = load i32, ptr %14, align 4, !tbaa !21
  %163 = and i32 %162, 1
  %164 = icmp ne i32 %163, 0
  br i1 %164, label %165, label %229

165:                                              ; preds = %161
  %166 = load ptr, ptr %8, align 8, !tbaa !20
  %167 = load i32, ptr %16, align 4, !tbaa !21
  %168 = sext i32 %167 to i64
  %169 = getelementptr inbounds i8, ptr %166, i64 %168
  %170 = getelementptr inbounds i8, ptr %169, i64 0
  %171 = load i8, ptr %170, align 1, !tbaa !36
  %172 = call i32 @GammaToLinear(i8 noundef zeroext %171)
  %173 = load ptr, ptr %8, align 8, !tbaa !20
  %174 = load i32, ptr %16, align 4, !tbaa !21
  %175 = sext i32 %174 to i64
  %176 = getelementptr inbounds i8, ptr %173, i64 %175
  %177 = load i32, ptr %12, align 4, !tbaa !21
  %178 = sext i32 %177 to i64
  %179 = getelementptr inbounds i8, ptr %176, i64 %178
  %180 = load i8, ptr %179, align 1, !tbaa !36
  %181 = call i32 @GammaToLinear(i8 noundef zeroext %180)
  %182 = add i32 %172, %181
  %183 = call i32 @LinearToGamma(i32 noundef %182, i32 noundef 1)
  %184 = trunc i32 %183 to i16
  %185 = load ptr, ptr %13, align 8, !tbaa !42
  %186 = getelementptr inbounds i16, ptr %185, i64 0
  store i16 %184, ptr %186, align 2, !tbaa !46
  %187 = load ptr, ptr %9, align 8, !tbaa !20
  %188 = load i32, ptr %16, align 4, !tbaa !21
  %189 = sext i32 %188 to i64
  %190 = getelementptr inbounds i8, ptr %187, i64 %189
  %191 = getelementptr inbounds i8, ptr %190, i64 0
  %192 = load i8, ptr %191, align 1, !tbaa !36
  %193 = call i32 @GammaToLinear(i8 noundef zeroext %192)
  %194 = load ptr, ptr %9, align 8, !tbaa !20
  %195 = load i32, ptr %16, align 4, !tbaa !21
  %196 = sext i32 %195 to i64
  %197 = getelementptr inbounds i8, ptr %194, i64 %196
  %198 = load i32, ptr %12, align 4, !tbaa !21
  %199 = sext i32 %198 to i64
  %200 = getelementptr inbounds i8, ptr %197, i64 %199
  %201 = load i8, ptr %200, align 1, !tbaa !36
  %202 = call i32 @GammaToLinear(i8 noundef zeroext %201)
  %203 = add i32 %193, %202
  %204 = call i32 @LinearToGamma(i32 noundef %203, i32 noundef 1)
  %205 = trunc i32 %204 to i16
  %206 = load ptr, ptr %13, align 8, !tbaa !42
  %207 = getelementptr inbounds i16, ptr %206, i64 1
  store i16 %205, ptr %207, align 2, !tbaa !46
  %208 = load ptr, ptr %10, align 8, !tbaa !20
  %209 = load i32, ptr %16, align 4, !tbaa !21
  %210 = sext i32 %209 to i64
  %211 = getelementptr inbounds i8, ptr %208, i64 %210
  %212 = getelementptr inbounds i8, ptr %211, i64 0
  %213 = load i8, ptr %212, align 1, !tbaa !36
  %214 = call i32 @GammaToLinear(i8 noundef zeroext %213)
  %215 = load ptr, ptr %10, align 8, !tbaa !20
  %216 = load i32, ptr %16, align 4, !tbaa !21
  %217 = sext i32 %216 to i64
  %218 = getelementptr inbounds i8, ptr %215, i64 %217
  %219 = load i32, ptr %12, align 4, !tbaa !21
  %220 = sext i32 %219 to i64
  %221 = getelementptr inbounds i8, ptr %218, i64 %220
  %222 = load i8, ptr %221, align 1, !tbaa !36
  %223 = call i32 @GammaToLinear(i8 noundef zeroext %222)
  %224 = add i32 %214, %223
  %225 = call i32 @LinearToGamma(i32 noundef %224, i32 noundef 1)
  %226 = trunc i32 %225 to i16
  %227 = load ptr, ptr %13, align 8, !tbaa !42
  %228 = getelementptr inbounds i16, ptr %227, i64 2
  store i16 %226, ptr %228, align 2, !tbaa !46
  br label %229

229:                                              ; preds = %165, %161
  call void @llvm.lifetime.end.p0(i64 4, ptr %16) #7
  call void @llvm.lifetime.end.p0(i64 4, ptr %15) #7
  ret void
}