; Function Attrs: inlinehint nofree norecurse nosync nounwind memory(read, argmem: readwrite, inaccessiblemem: none) uwtable
define internal fastcc void @AccumulateRGB(ptr noundef nonnull readonly captures(none) %0, ptr noundef nonnull readonly captures(none) %1, ptr noundef nonnull readonly captures(none) %2, i32 noundef range(i32 3, 5) %3, i32 noundef %4, ptr noundef nonnull writeonly captures(none) %5, i32 noundef %6) unnamed_addr #3 {
  %8 = ashr i32 %6, 1
  %9 = icmp sgt i32 %8, 0
  br i1 %9, label %.lr.ph, label %._crit_edge

.lr.ph:                                           ; preds = %7
  %10 = zext nneg i32 %3 to i64
  %11 = sext i32 %4 to i64
  %12 = add nsw i32 %4, %3
  %13 = sext i32 %12 to i64
  %14 = shl nuw nsw i64 %10, 1
  br label %15

15:                                               ; preds = %.lr.ph, %15
  %indvars.iv = phi i64 [ 0, %.lr.ph ], [ %indvars.iv.next, %15 ]
  %.06366 = phi i32 [ 0, %.lr.ph ], [ %147, %15 ]
  %.06465 = phi ptr [ %5, %.lr.ph ], [ %148, %15 ]
  %16 = getelementptr inbounds nuw i8, ptr %0, i64 %indvars.iv
  %17 = load i8, ptr %16, align 1, !tbaa !30
  %18 = zext i8 %17 to i64
  %19 = getelementptr inbounds nuw [256 x i16], ptr @kGammaToLinearTab, i64 0, i64 %18
  %20 = load i16, ptr %19, align 2, !tbaa !36
  %21 = zext i16 %20 to i32
  %22 = getelementptr inbounds nuw i8, ptr %16, i64 %10
  %23 = load i8, ptr %22, align 1, !tbaa !30
  %24 = zext i8 %23 to i64
  %25 = getelementptr inbounds nuw [256 x i16], ptr @kGammaToLinearTab, i64 0, i64 %24
  %26 = load i16, ptr %25, align 2, !tbaa !36
  %27 = zext i16 %26 to i32
  %28 = add nuw nsw i32 %27, %21
  %29 = getelementptr inbounds i8, ptr %16, i64 %11
  %30 = load i8, ptr %29, align 1, !tbaa !30
  %31 = zext i8 %30 to i64
  %32 = getelementptr inbounds nuw [256 x i16], ptr @kGammaToLinearTab, i64 0, i64 %31
  %33 = load i16, ptr %32, align 2, !tbaa !36
  %34 = zext i16 %33 to i32
  %35 = add nuw nsw i32 %28, %34
  %36 = getelementptr inbounds i8, ptr %16, i64 %13
  %37 = load i8, ptr %36, align 1, !tbaa !30
  %38 = zext i8 %37 to i64
  %39 = getelementptr inbounds nuw [256 x i16], ptr @kGammaToLinearTab, i64 0, i64 %38
  %40 = load i16, ptr %39, align 2, !tbaa !36
  %41 = zext i16 %40 to i32
  %42 = add nuw nsw i32 %35, %41
  %43 = lshr i32 %42, 9
  %44 = and i32 %42, 511
  %45 = zext nneg i32 %43 to i64
  %46 = getelementptr inbounds nuw [33 x i32], ptr @kLinearToGammaTab, i64 0, i64 %45
  %47 = load i32, ptr %46, align 4, !tbaa !29
  %48 = add nuw nsw i32 %43, 1
  %49 = zext nneg i32 %48 to i64
  %50 = getelementptr inbounds nuw [33 x i32], ptr @kLinearToGammaTab, i64 0, i64 %49
  %51 = load i32, ptr %50, align 4, !tbaa !29
  %52 = mul nsw i32 %44, %51
  %53 = sub nuw nsw i32 512, %44
  %54 = mul nsw i32 %53, %47
  %55 = add i32 %52, 64
  %56 = add i32 %55, %54
  %57 = lshr i32 %56, 7
  %58 = trunc i32 %57 to i16
  store i16 %58, ptr %.06465, align 2, !tbaa !36
  %59 = getelementptr inbounds nuw i8, ptr %1, i64 %indvars.iv
  %60 = load i8, ptr %59, align 1, !tbaa !30
  %61 = zext i8 %60 to i64
  %62 = getelementptr inbounds nuw [256 x i16], ptr @kGammaToLinearTab, i64 0, i64 %61
  %63 = load i16, ptr %62, align 2, !tbaa !36
  %64 = zext i16 %63 to i32
  %65 = getelementptr inbounds nuw i8, ptr %59, i64 %10
  %66 = load i8, ptr %65, align 1, !tbaa !30
  %67 = zext i8 %66 to i64
  %68 = getelementptr inbounds nuw [256 x i16], ptr @kGammaToLinearTab, i64 0, i64 %67
  %69 = load i16, ptr %68, align 2, !tbaa !36
  %70 = zext i16 %69 to i32
  %71 = add nuw nsw i32 %70, %64
  %72 = getelementptr inbounds i8, ptr %59, i64 %11
  %73 = load i8, ptr %72, align 1, !tbaa !30
  %74 = zext i8 %73 to i64
  %75 = getelementptr inbounds nuw [256 x i16], ptr @kGammaToLinearTab, i64 0, i64 %74
  %76 = load i16, ptr %75, align 2, !tbaa !36
  %77 = zext i16 %76 to i32
  %78 = add nuw nsw i32 %71, %77
  %79 = getelementptr inbounds i8, ptr %59, i64 %13
  %80 = load i8, ptr %79, align 1, !tbaa !30
  %81 = zext i8 %80 to i64
  %82 = getelementptr inbounds nuw [256 x i16], ptr @kGammaToLinearTab, i64 0, i64 %81
  %83 = load i16, ptr %82, align 2, !tbaa !36
  %84 = zext i16 %83 to i32
  %85 = add nuw nsw i32 %78, %84
  %86 = lshr i32 %85, 9
  %87 = and i32 %85, 511
  %88 = zext nneg i32 %86 to i64
  %89 = getelementptr inbounds nuw [33 x i32], ptr @kLinearToGammaTab, i64 0, i64 %88
  %90 = load i32, ptr %89, align 4, !tbaa !29
  %91 = add nuw nsw i32 %86, 1
  %92 = zext nneg i32 %91 to i64
  %93 = getelementptr inbounds nuw [33 x i32], ptr @kLinearToGammaTab, i64 0, i64 %92
  %94 = load i32, ptr %93, align 4, !tbaa !29
  %95 = mul nsw i32 %87, %94
  %96 = sub nuw nsw i32 512, %87
  %97 = mul nsw i32 %96, %90
  %98 = add i32 %95, 64
  %99 = add i32 %98, %97
  %100 = lshr i32 %99, 7
  %101 = trunc i32 %100 to i16
  %102 = getelementptr inbounds nuw i8, ptr %.06465, i64 2
  store i16 %101, ptr %102, align 2, !tbaa !36
  %103 = getelementptr inbounds nuw i8, ptr %2, i64 %indvars.iv
  %104 = load i8, ptr %103, align 1, !tbaa !30
  %105 = zext i8 %104 to i64
  %106 = getelementptr inbounds nuw [256 x i16], ptr @kGammaToLinearTab, i64 0, i64 %105
  %107 = load i16, ptr %106, align 2, !tbaa !36
  %108 = zext i16 %107 to i32
  %109 = getelementptr inbounds nuw i8, ptr %103, i64 %10
  %110 = load i8, ptr %109, align 1, !tbaa !30
  %111 = zext i8 %110 to i64
  %112 = getelementptr inbounds nuw [256 x i16], ptr @kGammaToLinearTab, i64 0, i64 %111
  %113 = load i16, ptr %112, align 2, !tbaa !36
  %114 = zext i16 %113 to i32
  %115 = add nuw nsw i32 %114, %108
  %116 = getelementptr inbounds i8, ptr %103, i64 %11
  %117 = load i8, ptr %116, align 1, !tbaa !30
  %118 = zext i8 %117 to i64
  %119 = getelementptr inbounds nuw [256 x i16], ptr @kGammaToLinearTab, i64 0, i64 %118
  %120 = load i16, ptr %119, align 2, !tbaa !36
  %121 = zext i16 %120 to i32
  %122 = add nuw nsw i32 %115, %121
  %123 = getelementptr inbounds i8, ptr %103, i64 %13
  %124 = load i8, ptr %123, align 1, !tbaa !30
  %125 = zext i8 %124 to i64
  %126 = getelementptr inbounds nuw [256 x i16], ptr @kGammaToLinearTab, i64 0, i64 %125
  %127 = load i16, ptr %126, align 2, !tbaa !36
  %128 = zext i16 %127 to i32
  %129 = add nuw nsw i32 %122, %128
  %130 = lshr i32 %129, 9
  %131 = and i32 %129, 511
  %132 = zext nneg i32 %130 to i64
  %133 = getelementptr inbounds nuw [33 x i32], ptr @kLinearToGammaTab, i64 0, i64 %132
  %134 = load i32, ptr %133, align 4, !tbaa !29
  %135 = add nuw nsw i32 %130, 1
  %136 = zext nneg i32 %135 to i64
  %137 = getelementptr inbounds nuw [33 x i32], ptr @kLinearToGammaTab, i64 0, i64 %136
  %138 = load i32, ptr %137, align 4, !tbaa !29
  %139 = mul nsw i32 %131, %138
  %140 = sub nuw nsw i32 512, %131
  %141 = mul nsw i32 %140, %134
  %142 = add i32 %139, 64
  %143 = add i32 %142, %141
  %144 = lshr i32 %143, 7
  %145 = trunc i32 %144 to i16
  %146 = getelementptr inbounds nuw i8, ptr %.06465, i64 4
  store i16 %145, ptr %146, align 2, !tbaa !36
  %147 = add nuw nsw i32 %.06366, 1
  %indvars.iv.next = add nuw nsw i64 %indvars.iv, %14
  %148 = getelementptr inbounds nuw i8, ptr %.06465, i64 8
  %exitcond.not = icmp eq i32 %147, %8
  br i1 %exitcond.not, label %._crit_edge.loopexit, label %15, !llvm.loop !47

._crit_edge.loopexit:                             ; preds = %15
  %149 = and i64 %indvars.iv.next, 4294967294
  br label %._crit_edge

._crit_edge:                                      ; preds = %._crit_edge.loopexit, %7
  %.064.lcssa = phi ptr [ %5, %7 ], [ %148, %._crit_edge.loopexit ]
  %.0.lcssa = phi i64 [ 0, %7 ], [ %149, %._crit_edge.loopexit ]
  %150 = and i32 %6, 1
  %.not = icmp eq i32 %150, 0
  br i1 %.not, label %245, label %151

151:                                              ; preds = %._crit_edge
  %152 = getelementptr inbounds nuw i8, ptr %0, i64 %.0.lcssa
  %153 = load i8, ptr %152, align 1, !tbaa !30
  %154 = zext i8 %153 to i64
  %155 = getelementptr inbounds nuw [256 x i16], ptr @kGammaToLinearTab, i64 0, i64 %154
  %156 = load i16, ptr %155, align 2, !tbaa !36
  %157 = zext i16 %156 to i32
  %158 = sext i32 %4 to i64
  %159 = getelementptr inbounds i8, ptr %152, i64 %158
  %160 = load i8, ptr %159, align 1, !tbaa !30
  %161 = zext i8 %160 to i64
  %162 = getelementptr inbounds nuw [256 x i16], ptr @kGammaToLinearTab, i64 0, i64 %161
  %163 = load i16, ptr %162, align 2, !tbaa !36
  %164 = zext i16 %163 to i32
  %165 = add nuw nsw i32 %164, %157
  %166 = shl nuw nsw i32 %165, 1
  %167 = lshr i32 %165, 8
  %168 = and i32 %166, 510
  %169 = zext nneg i32 %167 to i64
  %170 = getelementptr inbounds nuw [33 x i32], ptr @kLinearToGammaTab, i64 0, i64 %169
  %171 = load i32, ptr %170, align 4, !tbaa !29
  %172 = add nuw nsw i32 %167, 1
  %173 = zext nneg i32 %172 to i64
  %174 = getelementptr inbounds nuw [33 x i32], ptr @kLinearToGammaTab, i64 0, i64 %173
  %175 = load i32, ptr %174, align 4, !tbaa !29
  %176 = mul nsw i32 %168, %175
  %177 = sub nuw nsw i32 512, %168
  %178 = mul nsw i32 %177, %171
  %179 = add i32 %176, 64
  %180 = add i32 %179, %178
  %181 = lshr i32 %180, 7
  %182 = trunc i32 %181 to i16
  store i16 %182, ptr %.064.lcssa, align 2, !tbaa !36
  %183 = getelementptr inbounds nuw i8, ptr %1, i64 %.0.lcssa
  %184 = load i8, ptr %183, align 1, !tbaa !30
  %185 = zext i8 %184 to i64
  %186 = getelementptr inbounds nuw [256 x i16], ptr @kGammaToLinearTab, i64 0, i64 %185
  %187 = load i16, ptr %186, align 2, !tbaa !36
  %188 = zext i16 %187 to i32
  %189 = getelementptr inbounds i8, ptr %183, i64 %158
  %190 = load i8, ptr %189, align 1, !tbaa !30
  %191 = zext i8 %190 to i64
  %192 = getelementptr inbounds nuw [256 x i16], ptr @kGammaToLinearTab, i64 0, i64 %191
  %193 = load i16, ptr %192, align 2, !tbaa !36
  %194 = zext i16 %193 to i32
  %195 = add nuw nsw i32 %194, %188
  %196 = shl nuw nsw i32 %195, 1
  %197 = lshr i32 %195, 8
  %198 = and i32 %196, 510
  %199 = zext nneg i32 %197 to i64
  %200 = getelementptr inbounds nuw [33 x i32], ptr @kLinearToGammaTab, i64 0, i64 %199
  %201 = load i32, ptr %200, align 4, !tbaa !29
  %202 = add nuw nsw i32 %197, 1
  %203 = zext nneg i32 %202 to i64
  %204 = getelementptr inbounds nuw [33 x i32], ptr @kLinearToGammaTab, i64 0, i64 %203
  %205 = load i32, ptr %204, align 4, !tbaa !29
  %206 = mul nsw i32 %198, %205
  %207 = sub nuw nsw i32 512, %198
  %208 = mul nsw i32 %207, %201
  %209 = add i32 %206, 64
  %210 = add i32 %209, %208
  %211 = lshr i32 %210, 7
  %212 = trunc i32 %211 to i16
  %213 = getelementptr inbounds nuw i8, ptr %.064.lcssa, i64 2
  store i16 %212, ptr %213, align 2, !tbaa !36
  %214 = getelementptr inbounds nuw i8, ptr %2, i64 %.0.lcssa
  %215 = load i8, ptr %214, align 1, !tbaa !30
  %216 = zext i8 %215 to i64
  %217 = getelementptr inbounds nuw [256 x i16], ptr @kGammaToLinearTab, i64 0, i64 %216
  %218 = load i16, ptr %217, align 2, !tbaa !36
  %219 = zext i16 %218 to i32
  %220 = getelementptr inbounds i8, ptr %214, i64 %158
  %221 = load i8, ptr %220, align 1, !tbaa !30
  %222 = zext i8 %221 to i64
  %223 = getelementptr inbounds nuw [256 x i16], ptr @kGammaToLinearTab, i64 0, i64 %222
  %224 = load i16, ptr %223, align 2, !tbaa !36
  %225 = zext i16 %224 to i32
  %226 = add nuw nsw i32 %225, %219
  %227 = shl nuw nsw i32 %226, 1
  %228 = lshr i32 %226, 8
  %229 = and i32 %227, 510
  %230 = zext nneg i32 %228 to i64
  %231 = getelementptr inbounds nuw [33 x i32], ptr @kLinearToGammaTab, i64 0, i64 %230
  %232 = load i32, ptr %231, align 4, !tbaa !29
  %233 = add nuw nsw i32 %228, 1
  %234 = zext nneg i32 %233 to i64
  %235 = getelementptr inbounds nuw [33 x i32], ptr @kLinearToGammaTab, i64 0, i64 %234
  %236 = load i32, ptr %235, align 4, !tbaa !29
  %237 = mul nsw i32 %229, %236
  %238 = sub nuw nsw i32 512, %229
  %239 = mul nsw i32 %238, %232
  %240 = add i32 %237, 64
  %241 = add i32 %240, %239
  %242 = lshr i32 %241, 7
  %243 = trunc i32 %242 to i16
  %244 = getelementptr inbounds nuw i8, ptr %.064.lcssa, i64 4
  store i16 %243, ptr %244, align 2, !tbaa !36
  br label %245

245:                                              ; preds = %151, %._crit_edge
  ret void
}